; Function Attrs: mustprogress nofree norecurse nounwind willreturn memory(readwrite, inaccessiblemem: none) uwtable
define void @_ZNK32pxrInternal_v0_24__pxrReserved__7SdfPath17GetAncestorsRangeEv(ptr dead_on_unwind noalias nocapture writable writeonly sret(%"class.pxrInternal_v0_24__pxrReserved__::SdfPathAncestorsRange") align 4 %0, ptr nocapture noundef nonnull readonly align 4 dereferenceable(8) %1) local_unnamed_addr #10 align 2 personality ptr @__gxx_personality_v0 {
  %3 = load i32, ptr %1, align 4
  store i32 %3, ptr %0, align 4
  %.not.i.i.i = icmp eq i32 %3, 0
  br i1 %.not.i.i.i, label %_ZN32pxrInternal_v0_24__pxrReserved__21SdfPathAncestorsRangeC2ERKNS_7SdfPathE.exit, label %4

4:                                                ; preds = %2
  %5 = and i32 %3, 255
  %6 = lshr i32 %3, 8
  %7 = zext nneg i32 %5 to i64
  %8 = getelementptr inbounds [257 x ptr], ptr @_ZN32pxrInternal_v0_24__pxrReserved__8Sdf_PoolINS_15Sdf_PathPrimTagELj24ELj8ELj16384EE13_regionStartsE, i64 0, i64 %7
  %9 = load ptr, ptr %8, align 8
  %10 = mul nuw nsw i32 %6, 24
  %11 = zext nneg i32 %10 to i64
  %12 = getelementptr inbounds i8, ptr %9, i64 %11
  %13 = getelementptr inbounds nuw i8, ptr %12, i64 8
  %14 = atomicrmw add ptr %13, i32 1 monotonic, align 4
  br label %_ZN32pxrInternal_v0_24__pxrReserved__21SdfPathAncestorsRangeC2ERKNS_7SdfPathE.exit

_ZN32pxrInternal_v0_24__pxrReserved__21SdfPathAncestorsRangeC2ERKNS_7SdfPathE.exit: ; preds = %2, %4
  %15 = getelementptr inbounds nuw i8, ptr %0, i64 4
  %16 = getelementptr inbounds nuw i8, ptr %1, i64 4
  %17 = load i32, ptr %16, align 4
  store i32 %17, ptr %15, align 4
  ret void
}